; Function Attrs: mustprogress uwtable
define internal void @_ZN12_GLOBAL__N_115CxxPrintVisitorIZNS_9CxxModule14write_eval_defERN5Yosys10Functional6WriterEEUlNS3_4NodeEE_E3muxES6_S6_S6_S6_(ptr noundef nonnull readonly align 8 captures(none) dereferenceable(40) %0, ptr readnone captures(none) %1, i32 %2, ptr %3, i32 %4, ptr noundef nonnull byval(%"class.Yosys::Functional::Node") align 8 %5, ptr noundef nonnull byval(%"class.Yosys::Functional::Node") align 8 %6) unnamed_addr #5 align 2 {
  %8 = alloca %"class.Yosys::Functional::Node", align 8
  store ptr %3, ptr %8, align 8
  %9 = getelementptr inbounds nuw i8, ptr %8, i64 8
  store i32 %4, ptr %9, align 8
  %10 = getelementptr inbounds nuw i8, ptr %0, i64 8
  %.val = load ptr, ptr %10, align 8, !tbaa !489
  %11 = getelementptr inbounds nuw i8, ptr %0, i64 16
  %.val1 = load ptr, ptr %11, align 8, !tbaa !495
  call fastcc void @_ZN12_GLOBAL__N_115CxxPrintVisitorIZNS_9CxxModule14write_eval_defERN5Yosys10Functional6WriterEEUlNS3_4NodeEE_E5printIJRS6_SA_SA_EEEvPKcDpOT_(ptr %.val, ptr %.val1, ptr noundef nonnull @.str.182, ptr noundef nonnull align 8 dereferenceable(16) %8, ptr noundef nonnull align 8 dereferenceable(16) %5, ptr noundef nonnull align 8 dereferenceable(16) %6)
  ret void
}